#include <math.h>
#include <stdio.h>
#include <stdlib.h>
#include <string.h>

void main()
{
	int a[5],n,i;
	scanf("%d",&n);
	for (i=1;i<=5;i++)
	{	a[i]=n%10;
	  n=(n-a[i])/10;
	}
for (i=1;i<=5;i++)
if (a[i]!=0) printf("%d",a[i]);
}
