; ModuleID = '56/556.c'
source_filename = "56/556.c"
target datalayout = "e-m:e-p270:32:32-p271:32:32-p272:64:64-i64:64-f80:128-n8:16:32:64-S128"
target triple = "x86_64-pc-linux-gnu"

@.str = private unnamed_addr constant [3 x i8] c"%d\00", align 1

; Function Attrs: noinline nounwind uwtable
define dso_local void @main() #0 {
  %1 = alloca [5 x i32], align 16
  %2 = alloca i32, align 4
  %3 = alloca i32, align 4
  %4 = call i32 (i8*, ...) @__isoc99_scanf(i8* getelementptr inbounds ([3 x i8], [3 x i8]* @.str, i64 0, i64 0), i32* %2)
  store i32 1, i32* %3, align 4
  br label %5

5:                                                ; preds = %21, %0
  %6 = load i32, i32* %3, align 4
  %7 = icmp sle i32 %6, 5
  br i1 %7, label %8, label %24

8:                                                ; preds = %5
  %9 = load i32, i32* %2, align 4
  %10 = srem i32 %9, 10
  %11 = load i32, i32* %3, align 4
  %12 = sext i32 %11 to i64
  %13 = getelementptr inbounds [5 x i32], [5 x i32]* %1, i64 0, i64 %12
  store i32 %10, i32* %13, align 4
  %14 = load i32, i32* %2, align 4
  %15 = load i32, i32* %3, align 4
  %16 = sext i32 %15 to i64
  %17 = getelementptr inbounds [5 x i32], [5 x i32]* %1, i64 0, i64 %16
  %18 = load i32, i32* %17, align 4
  %19 = sub nsw i32 %14, %18
  %20 = sdiv i32 %19, 10
  store i32 %20, i32* %2, align 4
  br label %21

21:                                               ; preds = %8
  %22 = load i32, i32* %3, align 4
  %23 = add nsw i32 %22, 1
  store i32 %23, i32* %3, align 4
  br label %5

24:                                               ; preds = %5
  store i32 1, i32* %3, align 4
  br label %25

25:                                               ; preds = %41, %24
  %26 = load i32, i32* %3, align 4
  %27 = icmp sle i32 %26, 5
  br i1 %27, label %28, label %44

28:                                               ; preds = %25
  %29 = load i32, i32* %3, align 4
  %30 = sext i32 %29 to i64
  %31 = getelementptr inbounds [5 x i32], [5 x i32]* %1, i64 0, i64 %30
  %32 = load i32, i32* %31, align 4
  %33 = icmp ne i32 %32, 0
  br i1 %33, label %34, label %40

34:                                               ; preds = %28
  %35 = load i32, i32* %3, align 4
  %36 = sext i32 %35 to i64
  %37 = getelementptr inbounds [5 x i32], [5 x i32]* %1, i64 0, i64 %36
  %38 = load i32, i32* %37, align 4
  %39 = call i32 (i8*, ...) @printf(i8* getelementptr inbounds ([3 x i8], [3 x i8]* @.str, i64 0, i64 0), i32 %38)
  br label %40

40:                                               ; preds = %34, %28
  br label %41

41:                                               ; preds = %40
  %42 = load i32, i32* %3, align 4
  %43 = add nsw i32 %42, 1
  store i32 %43, i32* %3, align 4
  br label %25

44:                                               ; preds = %25
  ret void
}

declare dso_local i32 @__isoc99_scanf(i8*, ...) #1

declare dso_local i32 @printf(i8*, ...) #1


!llvm.module.flags = !{!0}
!llvm.ident = !{!1}

!0 = !{i32 1, !"wchar_size", i32 4}
!1 = !{!"clang version 10.0.0-4ubuntu1 "}
